target datalayout = "e-m:e-p270:32:32-p271:32:32-p272:64:64-i64:64-i128:128-f80:128-n8:16:32:64-S128"
target triple = "x86_64-pc-linux-gnu"

%struct.ctld_list_msg_t = type { ptr }

@.str.2 = private unnamed_addr constant [22 x i8] c"slurm_protocol_pack.c\00", align 1
@__func__._unpack_buf_list_msg = private unnamed_addr constant [21 x i8] c"_unpack_buf_list_msg\00", align 1

; Function Attrs: nounwind uwtable
define internal i32 @_unpack_buf_list_msg(ptr noundef %0, ptr noundef %1, i16 noundef zeroext %2) #0 {
  %4 = alloca i32, align 4
  %5 = alloca ptr, align 8
  %6 = alloca ptr, align 8
  %7 = alloca i16, align 2
  %8 = alloca ptr, align 8
  %9 = alloca i32, align 4
  %10 = alloca i32, align 4
  %11 = alloca i32, align 4
  %12 = alloca i32, align 4
  %13 = alloca ptr, align 8
  %14 = alloca ptr, align 8
  %15 = alloca i32, align 4
  store ptr %0, ptr %5, align 8
  store ptr %1, ptr %6, align 8
  store i16 %2, ptr %7, align 2
  call void @llvm.lifetime.start.p0(i64 8, ptr %8) #6
  store ptr null, ptr %8, align 8
  call void @llvm.lifetime.start.p0(i64 4, ptr %9) #6
  call void @llvm.lifetime.start.p0(i64 4, ptr %10) #6
  store i32 0, ptr %10, align 4
  call void @llvm.lifetime.start.p0(i64 4, ptr %11) #6
  store i32 0, ptr %11, align 4
  call void @llvm.lifetime.start.p0(i64 4, ptr %12) #6
  store i32 0, ptr %12, align 4
  call void @llvm.lifetime.start.p0(i64 8, ptr %13) #6
  store ptr null, ptr %13, align 8
  call void @llvm.lifetime.start.p0(i64 8, ptr %14) #6
  %16 = load i16, ptr %7, align 2
  %17 = zext i16 %16 to i32
  %18 = icmp sge i32 %17, 10240
  br i1 %18, label %19, label %75

19:                                               ; preds = %3
  %20 = call ptr @slurm_xcalloc(i64 noundef 1, i64 noundef 8, i1 noundef zeroext true, i1 noundef zeroext false, ptr noundef @.str.2, i32 noundef 12229, ptr noundef @__func__._unpack_buf_list_msg)
  store ptr %20, ptr %8, align 8
  %21 = load ptr, ptr %8, align 8
  %22 = load ptr, ptr %5, align 8
  store ptr %21, ptr %22, align 8
  br label %23

23:                                               ; preds = %19
  %24 = load ptr, ptr %6, align 8
  %25 = call i32 @unpack32(ptr noundef %10, ptr noundef %24)
  %26 = icmp ne i32 %25, 0
  br i1 %26, label %27, label %28

27:                                               ; preds = %23
  br label %76

28:                                               ; preds = %23
  br label %29

29:                                               ; preds = %28
  br label %30

30:                                               ; preds = %29
  %31 = load i32, ptr %10, align 4
  %32 = icmp uge i32 %31, -2
  br i1 %32, label %33, label %34

33:                                               ; preds = %30
  br label %76

34:                                               ; preds = %30
  %35 = call ptr @list_create(ptr noundef @_ctld_free_list_msg)
  %36 = load ptr, ptr %8, align 8
  %37 = getelementptr inbounds nuw %struct.ctld_list_msg_t, ptr %36, i32 0, i32 0
  store ptr %35, ptr %37, align 8
  store i32 0, ptr %9, align 4
  br label %38

38:                                               ; preds = %71, %34
  %39 = load i32, ptr %9, align 4
  %40 = load i32, ptr %10, align 4
  %41 = icmp ult i32 %39, %40
  br i1 %41, label %42, label %74

42:                                               ; preds = %38
  br label %43

43:                                               ; preds = %42
  %44 = load ptr, ptr %6, align 8
  %45 = call i32 @unpack32(ptr noundef %11, ptr noundef %44)
  %46 = icmp ne i32 %45, 0
  br i1 %46, label %47, label %48

47:                                               ; preds = %43
  br label %76

48:                                               ; preds = %43
  br label %49

49:                                               ; preds = %48
  br label %50

50:                                               ; preds = %49
  br label %51

51:                                               ; preds = %50
  %52 = load ptr, ptr %6, align 8
  %53 = call i32 @unpackmem_xmalloc(ptr noundef %13, ptr noundef %12, ptr noundef %52)
  %54 = icmp ne i32 %53, 0
  br i1 %54, label %55, label %56

55:                                               ; preds = %51
  br label %76

56:                                               ; preds = %51
  br label %57

57:                                               ; preds = %56
  br label %58

58:                                               ; preds = %57
  %59 = load i32, ptr %11, align 4
  %60 = load i32, ptr %12, align 4
  %61 = icmp ne i32 %59, %60
  br i1 %61, label %62, label %63

62:                                               ; preds = %58
  br label %76

63:                                               ; preds = %58
  %64 = load ptr, ptr %13, align 8
  %65 = load i32, ptr %11, align 4
  %66 = call ptr @create_buf(ptr noundef %64, i32 noundef %65)
  store ptr %66, ptr %14, align 8
  store ptr null, ptr %13, align 8
  %67 = load ptr, ptr %8, align 8
  %68 = getelementptr inbounds nuw %struct.ctld_list_msg_t, ptr %67, i32 0, i32 0
  %69 = load ptr, ptr %68, align 8
  %70 = load ptr, ptr %14, align 8
  call void @list_append(ptr noundef %69, ptr noundef %70)
  br label %71

71:                                               ; preds = %63
  %72 = load i32, ptr %9, align 4
  %73 = add i32 %72, 1
  store i32 %73, ptr %9, align 4
  br label %38, !llvm.loop !119

74:                                               ; preds = %38
  br label %75

75:                                               ; preds = %74, %3
  store i32 0, ptr %4, align 4
  store i32 1, ptr %15, align 4
  br label %79

76:                                               ; preds = %62, %55, %47, %33, %27
  call void @slurm_xfree(ptr noundef %13)
  %77 = load ptr, ptr %8, align 8
  call void @slurm_free_ctld_multi_msg(ptr noundef %77)
  %78 = load ptr, ptr %5, align 8
  store ptr null, ptr %78, align 8
  store i32 -1, ptr %4, align 4
  store i32 1, ptr %15, align 4
  br label %79

79:                                               ; preds = %76, %75
  call void @llvm.lifetime.end.p0(i64 8, ptr %14) #6
  call void @llvm.lifetime.end.p0(i64 8, ptr %13) #6
  call void @llvm.lifetime.end.p0(i64 4, ptr %12) #6
  call void @llvm.lifetime.end.p0(i64 4, ptr %11) #6
  call void @llvm.lifetime.end.p0(i64 4, ptr %10) #6
  call void @llvm.lifetime.end.p0(i64 4, ptr %9) #6
  call void @llvm.lifetime.end.p0(i64 8, ptr %8) #6
  %80 = load i32, ptr %4, align 4
  ret i32 %80
}