; Function Attrs: nounwind uwtable
define internal fastcc range(i32 -1, 1) i32 @_unpack_buf_list_msg(ptr noundef writeonly captures(none) %0, ptr noundef %1, i16 noundef zeroext %2) unnamed_addr #0 {
  %4 = alloca i32, align 4
  %5 = alloca i32, align 4
  %6 = alloca i32, align 4
  %7 = alloca ptr, align 8
  call void @llvm.lifetime.start.p0(i64 4, ptr nonnull %4) #7
  store i32 0, ptr %4, align 4
  call void @llvm.lifetime.start.p0(i64 4, ptr nonnull %5) #7
  store i32 0, ptr %5, align 4
  call void @llvm.lifetime.start.p0(i64 4, ptr nonnull %6) #7
  store i32 0, ptr %6, align 4
  call void @llvm.lifetime.start.p0(i64 8, ptr nonnull %7) #7
  store ptr null, ptr %7, align 8
  %8 = icmp ugt i16 %2, 10239
  br i1 %8, label %9, label %.loopexit

9:                                                ; preds = %3
  %10 = tail call ptr @slurm_xcalloc(i64 noundef 1, i64 noundef 8, i1 noundef zeroext true, i1 noundef zeroext false, ptr noundef nonnull @.str.2, i32 noundef 12229, ptr noundef nonnull @__func__._unpack_buf_list_msg) #7
  store ptr %10, ptr %0, align 8
  %11 = call i32 @unpack32(ptr noundef nonnull %4, ptr noundef %1) #7
  %12 = icmp ne i32 %11, 0
  %13 = load i32, ptr %4, align 4
  %14 = icmp ugt i32 %13, -3
  %or.cond = select i1 %12, i1 true, i1 %14
  br i1 %or.cond, label %.loopexit18, label %15

15:                                               ; preds = %9
  %16 = call ptr @list_create(ptr noundef nonnull @_ctld_free_list_msg) #7
  store ptr %16, ptr %10, align 8
  %17 = load i32, ptr %4, align 4
  %.not20 = icmp eq i32 %17, 0
  br i1 %.not20, label %.loopexit, label %.lr.ph

.lr.ph:                                           ; preds = %15, %24
  %.01419 = phi i32 [ %28, %24 ], [ 0, %15 ]
  %18 = call i32 @unpack32(ptr noundef nonnull %5, ptr noundef %1) #7
  %.not = icmp eq i32 %18, 0
  br i1 %.not, label %19, label %.loopexit18

19:                                               ; preds = %.lr.ph
  %20 = call i32 @unpackmem_xmalloc(ptr noundef nonnull %7, ptr noundef nonnull %6, ptr noundef %1) #7
  %.not16 = icmp eq i32 %20, 0
  br i1 %.not16, label %21, label %.loopexit18

21:                                               ; preds = %19
  %22 = load i32, ptr %5, align 4
  %23 = load i32, ptr %6, align 4
  %.not17 = icmp eq i32 %22, %23
  br i1 %.not17, label %24, label %.loopexit18

24:                                               ; preds = %21
  %25 = load ptr, ptr %7, align 8
  %26 = call ptr @create_buf(ptr noundef %25, i32 noundef %22) #7
  store ptr null, ptr %7, align 8
  %27 = load ptr, ptr %10, align 8
  call void @list_append(ptr noundef %27, ptr noundef %26) #7
  %28 = add nuw i32 %.01419, 1
  %29 = load i32, ptr %4, align 4
  %30 = icmp ult i32 %28, %29
  br i1 %30, label %.lr.ph, label %.loopexit, !llvm.loop !122

.loopexit18:                                      ; preds = %21, %19, %.lr.ph, %9
  call void @slurm_xfree(ptr noundef nonnull %7) #7
  call void @slurm_free_ctld_multi_msg(ptr noundef %10) #7
  store ptr null, ptr %0, align 8
  br label %.loopexit

.loopexit:                                        ; preds = %24, %15, %3, %.loopexit18
  %.0 = phi i32 [ -1, %.loopexit18 ], [ 0, %3 ], [ 0, %15 ], [ 0, %24 ]
  call void @llvm.lifetime.end.p0(i64 8, ptr nonnull %7) #7
  call void @llvm.lifetime.end.p0(i64 4, ptr nonnull %6) #7
  call void @llvm.lifetime.end.p0(i64 4, ptr nonnull %5) #7
  call void @llvm.lifetime.end.p0(i64 4, ptr nonnull %4) #7
  ret i32 %.0
}